-----BEGIN CERTIFICATE-----
MIIGDzCCA/egAwIBAgIJAMF37nQthza9MA0GCSqGSIb3DQEBBQUAMEkxHjAcBgNV
BAsTFUNlcnRpZmljYXRlIEF1dGhvcml0eTENMAsGA1UEAxMEUm9vdDEYMBYGCSqG
SIb3DQEJARYJcm9vdEBSb290MB4XDTExMDgxMDIyNDIyNloXDTE5MDgwODIyNDIy
NlowSTEeMBwGA1UECxMVQ2VydGlmaWNhdGUgQXV0aG9yaXR5MQ0wCwYDVQQDEwRS
b290MRgwFgYJKoZIhvcNAQkBFglyb290QFJvb3QwggIiMA0GCSqGSIb3DQEBAQUA
A4ICDwAwggIKAoICAQCb8iBp8mrFb8nD/nF/cbirMx8l39NFP29YxTnuA1fTGrO9
5FAfPXJbMhKaUGNAL3nNNFxw+kj33m6riGnM6VeuFQ0+ukakPKoJt0po7w721fIL
/PKN/6vfceavOZIBG0YfdFR1fFeXgbhU5BGsYlFwezD86C9OKdakQdPD9+8oLhxs
5bWVI9n+8sHZYFXMPkDGGE/Zp4oL+7B6w7dn+lpBmEXcfAImDM4HBNFlWKQmATAm
Om0ijx825S9RTXX1wwaOK4WlZfWGey2l7ojxItw5gLyQ/GGXiLEIhOpVw2IaoYAz
+em2BDJ03odFhrKozRuFr7YJzmz9HtEyAVfVk/+rBXFoQcmPSUpqs+BWyPT5p0qX
QP97Cgk2Cznm4f6ESYzDHeOzdzGYBjYuzmV31riNUEqPaXqHEYSZRjwZjfXHNpoT
iK7QTwo7UkadPrP68dJXdGImxihBpwbXIr496OjbggVqFDgceqY6X2EZIlY3rnSP
uPAe3UD1TD/RGfosw4KjjF4byILRHIcK1CIPA3fSXXlgjlfPQHUrRSzpvqBzH6o6
2xJo4N0mUOXOrP/uWr2nKpAAKoWFWDUsYreFrR3tIg5gC/HnYYzwlR5H6R61v2Mx
CObl6Y1X4zSw49DAHgmgikzW/JmsVGZLIxjZL0f95xDoMC6UaL5mKcjEELmM0wID
AQABo4H5MIH2MB0GA1UdDgQWBBQRpstNlQbewYg4/7LwIk4qr1cl8DB5BgNVHSME
cjBwgBQRpstNlQbewYg4/7LwIk4qr1cl8KFNpEswSTEeMBwGA1UECxMVQ2VydGlm
aWNhdGUgQXV0aG9yaXR5MQ0wCwYDVQQDEwRSb290MRgwFgYJKoZIhvcNAQkBFgly
b290QFJvb3SCCQDBd+50LYc2vTAMBgNVHRMEBTADAQH/MEwGCWCGSAGG+EIBBAQ/
Fj1odHRwczovL3BraS53ZWJzYWdlcy5jb20vb3U9Y2VydGlmaWNhdGVfYXV0aG9y
aXR5L2NuPXJvb3QuY3JsMA0GCSqGSIb3DQEBBQUAA4ICAQAFTbrCtQJEoclmm4WZ
kb1ezlp1vkVbL0dE5qFR8yH/KiRi6U9JCZRfkQdHH6i+bnyuzsiFlCPdiISWT4wV
2lnnlu0wFQM89nt32g5VOEtXbMDyH23+gww5h4kfrTz7Fk95WU47ibRqbO1T/Ksq
OgtJxjYsh7bBC68vMn+k5LMHVfwDlis4GrSnuAX/D+7LUWy+x5wFAEcz3CJnoxJu
1xnUlMX6DCjCLm9FjTv7BHODL+ai6eDgfWmjq31IDQu3pOyg5M/tBYJnNW/NLt+K
j3qbqt40NH/5QiyoK+4Mxy3CbiOKOafHSw+5yZiKaIUzoFEj9sppHZp1NKXBALj5
boXeKswG6Ah6+9n19P+rtgYUv/LK4E50qoxT5ByxkXXFjaQZWKafptcGj7VOjyXB
Ni0CWgRWu97whNnDTIz8Vn0jEIkAIcpOPwDx40uTfyCOQDAO+7i7bxV7sxjiFQRz
ZY1HQmnt8AaqM9CfGqUa1cZWKd1PO/V3Ih7/5Cwt1DdXT5Z9YZqr6u367rmNxZ8v
3kgUUM2/zGSeSEiAB2ETEAcUYAQtlGF0LTCE9UnUV2hTfCY6/zZLKwjlZE7nUJl2
SSKnqmiH/WkHfAlelvqrR8IlxNX3wmcWel18MIytB1mApfJWxc/InznnS+vQItqK
PeqgMiI7cro5rFzySqkoN4/C1g==
-----END CERTIFICATE-----
Certificate:
    Data:
        Version: 3 (0x2)
        Serial Number: 1 (0x1)
        Signature Algorithm: sha1WithRSAEncryption
        Issuer: OU=Certificate Authority, CN=Root/emailAddress=root@Root
        Validity
            Not Before: Aug 10 22:42:39 2011 GMT
            Not After : Aug  8 22:42:39 2016 GMT
        Subject: OU=Certificate Authority, CN=Intermediate/emailAddress=root@Intermediate
        Subject Public Key Info:
            Public Key Algorithm: rsaEncryption
            RSA Public Key: (4096 bit)
                Modulus (4096 bit):
                    00:ae:dc:c7:63:7f:76:86:25:8c:df:ff:45:2e:67:
                    3d:b9:00:e8:a6:78:8a:cf:bc:46:fc:56:8e:9a:8e:
                    5b:4e:c6:50:fa:43:4c:e9:aa:70:55:9b:17:ff:5a:
                    94:2e:fe:47:98:b3:0b:2f:a6:a0:46:00:d3:25:d6:
                    60:f0:4c:7e:41:30:28:27:4c:b1:ed:42:3e:f8:bb:
                    68:6f:4a:f1:50:b6:5d:f0:31:bc:a8:16:fd:c4:46:
                    a4:05:6b:1e:3d:da:11:28:65:a9:b3:05:98:f3:7c:
                    1f:a6:ef:bb:46:85:34:02:4f:eb:3e:57:86:70:b8:
                    19:bb:b5:b5:fa:4a:8d:4d:a4:be:98:40:e0:b2:db:
                    5d:8e:c5:de:d4:8b:7f:53:6c:dc:c6:a6:52:e5:91:
                    76:41:a7:eb:2a:60:89:b4:7b:04:bb:d2:f7:4c:68:
                    f3:9b:22:25:44:fa:76:2e:1e:50:46:c7:17:a9:72:
                    d2:b7:0f:7a:51:9c:1d:47:24:f8:e0:88:f2:27:b9:
                    28:26:d3:28:72:77:d3:fc:32:14:36:38:3b:26:9a:
                    47:53:d1:26:e4:78:41:29:bc:2b:c4:62:1d:1f:15:
                    e9:ca:93:ba:15:76:df:96:a0:2f:88:13:5d:de:78:
                    81:55:f0:96:ff:09:1c:85:85:a7:31:ba:7b:8d:81:
                    ca:2e:1e:0f:02:b4:b7:4e:78:ab:df:02:ae:0f:b3:
                    d4:36:96:aa:93:89:49:31:1a:6a:8b:ec:6f:2d:33:
                    a2:5d:05:74:97:f7:84:5d:e5:e9:3a:5a:49:31:77:
                    53:e5:65:1a:8c:67:c2:62:0e:e2:cf:9f:b3:e2:eb:
                    35:59:20:8c:90:92:30:13:62:4b:4f:7b:4a:ee:73:
                    07:fb:4b:ee:e8:b0:0a:ff:84:f6:b2:c4:42:cc:d0:
                    02:14:58:db:c0:09:97:8a:4f:7f:07:6d:1f:b9:d1:
                    4a:dc:1e:2c:2b:8e:5a:70:53:b7:f7:73:37:5e:9b:
                    da:ec:17:0f:0a:1e:1a:b0:73:b2:9b:58:d2:67:2c:
                    3e:85:67:71:bd:b0:71:22:23:5d:84:09:2f:ae:2c:
                    80:ef:e0:5b:69:72:14:9d:82:d7:23:f7:c1:3b:6f:
                    dc:d9:ad:33:4d:10:eb:a2:92:66:e7:e9:61:a2:63:
                    cc:6a:59:8e:2e:68:7e:e1:78:26:2c:83:13:f0:9e:
                    36:9a:ba:1c:3c:8e:8f:79:ac:6e:8c:4d:5a:7b:c9:
                    2f:d3:66:bc:ea:50:9d:20:37:c1:91:34:51:e3:9f:
                    ca:fc:3d:e9:e0:1b:3b:57:41:93:7b:d4:8d:da:8b:
                    88:4e:39:12:b2:36:7c:e8:d5:f5:68:f7:5e:8d:bb:
                    8a:47:ed
                Exponent: 65537 (0x10001)
        X509v3 extensions:
            X509v3 Subject Key Identifier: 
                E5:04:7D:9A:DA:A7:7C:81:D7:F5:F3:16:F7:13:5C:26:3B:D1:9B:1D
            X509v3 Authority Key Identifier: 
                keyid:11:A6:CB:4D:95:06:DE:C1:88:38:FF:B2:F0:22:4E:2A:AF:57:25:F0
                DirName:/OU=Certificate Authority/CN=Root/emailAddress=root@Root
                serial:C1:77:EE:74:2D:87:36:BD

            X509v3 Basic Constraints: 
                CA:TRUE
            Netscape CA Revocation Url: 
                https://pki.websages.com/ou=certificate_authority/cn=root.crl
    Signature Algorithm: sha1WithRSAEncryption
        3c:50:08:0c:fc:f0:92:42:4e:ed:2f:37:39:76:83:32:e6:04:
        48:51:08:93:7c:00:a2:ea:84:ec:6c:17:23:44:c2:b4:a7:36:
        d2:10:d0:14:12:b9:9e:c4:15:83:ee:d2:b0:38:c5:25:95:bb:
        62:a4:44:35:51:8c:f8:60:89:9f:0b:b0:ae:53:45:c6:77:75:
        30:a8:05:55:c8:32:59:12:bc:dd:7a:e6:a8:ae:50:9d:41:23:
        b9:be:14:64:74:47:7a:95:80:75:3b:f3:98:dc:4a:21:89:5e:
        66:b7:b9:cb:27:cb:f3:81:a4:52:6d:f8:97:5b:c0:81:00:af:
        a7:1c:0f:fa:2f:54:cb:32:94:39:bd:c7:73:11:41:e0:e0:fc:
        01:74:cc:35:86:62:6d:8c:32:27:83:e0:17:11:65:6b:84:14:
        a1:3b:5b:93:02:e6:22:c5:08:c0:3b:02:cd:8e:62:a4:0c:e8:
        c5:e1:a3:fa:a5:f0:3f:c6:2d:93:7e:49:a2:42:a6:a7:14:54:
        3b:4b:7a:4a:fe:d0:7a:cc:7e:d5:d4:c7:d5:1a:bb:7a:d5:84:
        36:86:33:7e:f3:ea:3b:3c:74:bb:c3:ab:c9:f2:d0:73:2f:90:
        ba:f2:88:94:02:cc:a4:26:64:14:10:00:59:7a:4b:73:bf:eb:
        ff:98:21:84:b7:79:95:8a:0d:db:79:a1:f1:68:f0:ee:d4:77:
        17:0e:7e:86:87:e1:58:44:c6:10:6d:2a:5e:38:ee:96:a6:70:
        9b:5f:c1:7e:fd:c1:35:c4:2b:61:fd:85:c4:b1:23:aa:46:cc:
        08:9a:86:ed:4c:c5:dc:e9:b5:ab:c1:e0:ee:d6:54:92:f3:cd:
        25:8e:a3:77:b6:c6:1d:18:18:73:19:05:32:84:5b:cd:01:c1:
        ac:f3:18:93:b7:5a:04:8a:1f:50:5d:98:d7:78:e4:7e:02:54:
        c9:15:25:8f:4f:36:17:cc:d4:0b:ed:e8:a5:01:5b:04:e4:5a:
        fb:1e:14:89:50:02:80:a3:8f:a9:f4:12:88:34:45:6b:4c:85:
        a0:f2:79:e5:6c:94:f7:11:78:79:0a:c3:cb:b9:7e:7e:2e:c7:
        60:18:de:03:e5:c5:01:50:ae:b1:81:69:2b:f9:12:c3:79:81:
        74:dc:47:1a:9f:53:06:fd:b1:f1:13:bd:43:34:f6:f7:cb:cb:
        c9:9a:d9:3d:fa:e1:37:f0:ee:16:72:b2:9b:33:16:81:17:05:
        43:a4:a4:36:05:90:be:82:29:56:af:4a:ba:5b:0f:55:05:d7:
        83:14:9b:97:ec:3a:2b:19:4c:ae:de:18:42:32:b1:b0:bf:81:
        88:e4:f0:4f:59:25:1e:74
-----BEGIN CERTIFICATE-----
MIIGFzCCA/+gAwIBAgIBATANBgkqhkiG9w0BAQUFADBJMR4wHAYDVQQLExVDZXJ0
aWZpY2F0ZSBBdXRob3JpdHkxDTALBgNVBAMTBFJvb3QxGDAWBgkqhkiG9w0BCQEW
CXJvb3RAUm9vdDAeFw0xMTA4MTAyMjQyMzlaFw0xNjA4MDgyMjQyMzlaMFkxHjAc
BgNVBAsTFUNlcnRpZmljYXRlIEF1dGhvcml0eTEVMBMGA1UEAxMMSW50ZXJtZWRp
YXRlMSAwHgYJKoZIhvcNAQkBFhFyb290QEludGVybWVkaWF0ZTCCAiIwDQYJKoZI
hvcNAQEBBQADggIPADCCAgoCggIBAK7cx2N/doYljN//RS5nPbkA6KZ4is+8RvxW
jpqOW07GUPpDTOmqcFWbF/9alC7+R5izCy+moEYA0yXWYPBMfkEwKCdMse1CPvi7
aG9K8VC2XfAxvKgW/cRGpAVrHj3aEShlqbMFmPN8H6bvu0aFNAJP6z5XhnC4Gbu1
tfpKjU2kvphA4LLbXY7F3tSLf1Ns3MamUuWRdkGn6ypgibR7BLvS90xo85siJUT6
di4eUEbHF6ly0rcPelGcHUck+OCI8ie5KCbTKHJ30/wyFDY4OyaaR1PRJuR4QSm8
K8RiHR8V6cqTuhV235agL4gTXd54gVXwlv8JHIWFpzG6e42Byi4eDwK0t054q98C
rg+z1DaWqpOJSTEaaovsby0zol0FdJf3hF3l6TpaSTF3U+VlGoxnwmIO4s+fs+Lr
NVkgjJCSMBNiS097Su5zB/tL7uiwCv+E9rLEQszQAhRY28AJl4pPfwdtH7nRStwe
LCuOWnBTt/dzN16b2uwXDwoeGrBzsptY0mcsPoVncb2wcSIjXYQJL64sgO/gW2ly
FJ2C1yP3wTtv3NmtM00Q66KSZufpYaJjzGpZji5ofuF4JiyDE/CeNpq6HDyOj3ms
boxNWnvJL9NmvOpQnSA3wZE0UeOfyvw96eAbO1dBk3vUjdqLiE45ErI2fOjV9Wj3
Xo27ikftAgMBAAGjgfkwgfYwHQYDVR0OBBYEFOUEfZrap3yB1/XzFvcTXCY70Zsd
MHkGA1UdIwRyMHCAFBGmy02VBt7BiDj/svAiTiqvVyXwoU2kSzBJMR4wHAYDVQQL
ExVDZXJ0aWZpY2F0ZSBBdXRob3JpdHkxDTALBgNVBAMTBFJvb3QxGDAWBgkqhkiG
9w0BCQEWCXJvb3RAUm9vdIIJAMF37nQthza9MAwGA1UdEwQFMAMBAf8wTAYJYIZI
AYb4QgEEBD8WPWh0dHBzOi8vcGtpLndlYnNhZ2VzLmNvbS9vdT1jZXJ0aWZpY2F0
ZV9hdXRob3JpdHkvY249cm9vdC5jcmwwDQYJKoZIhvcNAQEFBQADggIBADxQCAz8
8JJCTu0vNzl2gzLmBEhRCJN8AKLqhOxsFyNEwrSnNtIQ0BQSuZ7EFYPu0rA4xSWV
u2KkRDVRjPhgiZ8LsK5TRcZ3dTCoBVXIMlkSvN165qiuUJ1BI7m+FGR0R3qVgHU7
85jcSiGJXma3ucsny/OBpFJt+JdbwIEAr6ccD/ovVMsylDm9x3MRQeDg/AF0zDWG
Ym2MMieD4BcRZWuEFKE7W5MC5iLFCMA7As2OYqQM6MXho/ql8D/GLZN+SaJCpqcU
VDtLekr+0HrMftXUx9Uau3rVhDaGM37z6js8dLvDq8ny0HMvkLryiJQCzKQmZBQQ
AFl6S3O/6/+YIYS3eZWKDdt5ofFo8O7UdxcOfoaH4VhExhBtKl447pamcJtfwX79
wTXEK2H9hcSxI6pGzAiahu1MxdzptavB4O7WVJLzzSWOo3e2xh0YGHMZBTKEW80B
wazzGJO3WgSKH1BdmNd45H4CVMkVJY9PNhfM1Avt6KUBWwTkWvseFIlQAoCjj6n0
Eog0RWtMhaDyeeVslPcReHkKw8u5fn4ux2AY3gPlxQFQrrGBaSv5EsN5gXTcRxqf
Uwb9sfETvUM09vfLy8ma2T364Tfw7hZyspszFoEXBUOkpDYFkL6CKVavSrpbD1UF
14MUm5fsOisZTK7eGEIysbC/gYjk8E9ZJR50
-----END CERTIFICATE-----
Certificate:
    Data:
        Version: 3 (0x2)
        Serial Number: 1 (0x1)
        Signature Algorithm: sha1WithRSAEncryption
        Issuer: OU=Certificate Authority, CN=Intermediate/emailAddress=root@Intermediate
        Validity
            Not Before: Aug 10 22:42:47 2011 GMT
            Not After : Aug  9 22:42:47 2014 GMT
        Subject: O=Websages LLC, OU=Certificate Authority, CN=Intermediate/emailAddress=root@Intermediate
        Subject Public Key Info:
            Public Key Algorithm: rsaEncryption
            RSA Public Key: (4096 bit)
                Modulus (4096 bit):
                    00:c6:4f:ac:71:2f:24:9c:a0:a0:e8:0d:9c:32:72:
                    0a:d0:55:35:a7:00:cc:44:71:7f:28:80:ca:3c:b7:
                    ad:4b:6a:f4:19:80:4a:17:62:c6:22:3a:f9:7e:a8:
                    6b:d0:30:03:c0:04:1e:5a:21:01:e9:33:3e:d3:8d:
                    0f:ed:c7:55:b1:fb:75:b1:48:7f:72:f8:c6:40:df:
                    22:67:b4:7b:e2:d9:97:cc:7a:f3:e3:a1:65:ed:11:
                    fd:37:a9:23:e0:c3:12:4b:49:bd:7d:73:b5:99:59:
                    aa:04:0f:b9:23:b9:b1:6c:6c:9f:17:4c:be:b9:1e:
                    60:96:16:5f:25:a5:b3:1f:f3:bb:76:c2:3f:a7:28:
                    41:30:d9:36:ac:43:25:04:d3:8d:0f:97:71:84:78:
                    91:5a:1d:2a:50:e4:a2:a0:e9:ef:4e:ef:f0:db:9b:
                    41:54:a1:92:c0:28:2b:f6:e5:29:c0:3f:2d:5e:7c:
                    f4:44:76:27:17:28:66:0f:cf:13:36:0c:77:ff:48:
                    5e:f9:13:ac:ee:9d:d3:52:d8:42:6e:90:b0:dd:3c:
                    29:69:dc:b5:4b:91:78:94:38:43:75:d8:00:82:56:
                    84:4a:be:9a:57:c5:71:dc:ca:ff:56:05:36:19:73:
                    98:f6:16:df:4f:68:bc:d9:f9:8e:c8:24:2b:a4:a3:
                    72:97:81:58:7c:00:4e:bc:4d:c6:28:af:e8:7d:97:
                    83:e9:b7:93:aa:71:7b:27:e0:b7:ab:52:ef:d7:5f:
                    42:97:cc:10:95:a1:dc:2c:8b:df:69:23:90:03:34:
                    34:48:d8:a1:59:7c:bc:e7:d0:38:22:17:7e:9c:d8:
                    c5:c8:10:f4:52:3b:88:48:3d:77:60:6f:5e:15:57:
                    ea:2b:c7:ae:40:70:a5:6b:5a:1a:41:9e:27:2e:3c:
                    f1:28:34:3f:49:1a:2f:1d:6c:5a:3d:67:2a:55:de:
                    b6:be:9d:80:8c:21:9b:a5:cc:2a:10:53:cd:3c:a6:
                    74:fd:9b:3a:9f:21:d0:00:86:5a:8a:72:55:35:0c:
                    58:4d:78:42:ad:61:43:79:66:06:2c:9a:d8:74:2b:
                    41:bf:17:b5:3f:f2:56:ff:a7:c3:36:e1:f5:c0:f0:
                    c8:74:d1:54:c2:64:c1:de:08:f0:fa:89:16:f4:51:
                    a9:25:f2:b7:d5:49:44:a5:74:82:4a:9b:f4:e1:30:
                    f5:d5:2d:95:39:db:f3:c9:4b:b1:dd:8b:ef:13:d3:
                    ee:37:fd:5b:b9:e5:c4:e6:3b:ba:a1:dc:21:33:d5:
                    b9:25:22:36:fb:27:62:1c:9d:3d:b5:3e:20:c3:6e:
                    94:bd:aa:db:7d:b9:34:cf:2f:b0:4b:2c:04:c6:37:
                    02:69:fd
                Exponent: 65537 (0x10001)
        X509v3 extensions:
            X509v3 Subject Key Identifier: 
                A3:E8:CF:96:3F:26:1D:6F:3C:03:68:D8:05:7F:A0:58:EA:EB:6A:B0
            X509v3 Authority Key Identifier: 
                keyid:E5:04:7D:9A:DA:A7:7C:81:D7:F5:F3:16:F7:13:5C:26:3B:D1:9B:1D
                DirName:/OU=Certificate Authority/CN=Root/emailAddress=root@Root
                serial:01

            X509v3 Basic Constraints: 
                CA:TRUE
            Netscape CA Revocation Url: 
                https://pki.websages.com/ou=certificate_authority/cn=intermediate.crl
    Signature Algorithm: sha1WithRSAEncryption
        40:c2:11:eb:6d:fb:b3:ac:37:58:2f:22:df:3d:d7:19:dd:ac:
        b2:7f:bb:e4:b1:cd:ad:4d:20:23:87:d2:85:ea:17:2c:2b:21:
        21:a6:53:2e:b2:22:af:88:53:0e:b5:d4:37:d2:bd:dc:37:c8:
        c7:7a:8e:f5:42:6b:15:f3:9a:57:10:6d:b0:3a:48:0d:d2:8d:
        f6:4a:28:14:8d:02:57:16:33:57:ab:22:3f:4f:d8:ae:9d:d7:
        9d:67:9f:6f:ab:ac:c9:ef:f5:37:db:62:ae:7a:32:03:2b:17:
        92:26:31:68:d6:0e:ea:b5:ce:e4:6d:c6:27:6f:af:4f:7d:da:
        3c:ef:b0:af:b2:db:f6:5f:12:07:b2:20:06:15:cf:6b:74:48:
        5a:8d:36:96:b2:82:a2:85:b1:89:b3:3c:95:e0:8a:33:67:5f:
        70:7e:2c:2e:3a:78:a3:ec:89:22:0d:b4:09:8b:cf:0d:f4:7c:
        6e:85:a6:ec:b1:69:2a:a0:06:80:43:39:52:b3:9e:49:0c:29:
        d4:44:6b:b6:d4:92:9a:30:9c:91:be:6c:c9:71:a3:6c:6e:bb:
        c9:2c:b4:ec:f3:87:60:63:59:25:44:57:a2:56:06:bb:da:8c:
        6e:97:70:17:ac:1d:11:33:1e:21:53:f1:9e:8c:db:5b:f9:f5:
        4c:62:0b:8c:c2:25:94:e8:9c:ec:6d:ab:b9:53:f7:c9:c1:60:
        d5:b0:d5:5f:47:7d:b1:c1:15:31:bb:74:a6:cd:19:b8:70:7a:
        30:d8:da:3b:bd:57:a0:28:f4:73:9a:43:09:62:a4:50:12:2b:
        ac:86:cd:e0:23:6a:a5:2a:04:fe:b3:34:79:69:75:1d:f4:42:
        ab:ee:c9:14:6c:3c:d3:b6:d1:3c:ce:1a:a1:86:d0:bb:84:fd:
        cf:e6:69:a0:a8:3c:f7:04:cc:83:38:2f:66:8e:6e:97:e0:c2:
        ba:5f:06:99:79:29:94:b4:2d:ed:7c:20:d4:7d:b7:9a:85:69:
        42:6c:35:df:6a:f7:51:8e:1e:4e:7c:6a:5e:f4:72:d4:8f:29:
        3f:9a:a9:d7:8d:6e:e5:00:e9:8f:77:f0:5b:47:4c:83:21:e3:
        f2:8d:09:d2:73:30:4b:d4:32:60:8f:4b:81:ab:ab:b5:b5:7a:
        c0:6a:7a:78:fb:27:ff:06:59:82:78:e9:02:33:ad:8f:9b:7d:
        a4:6e:f8:9b:a4:aa:13:91:1c:44:0c:ef:f8:2f:9a:1b:45:c6:
        9b:c8:b9:d4:3e:f7:12:46:6b:27:12:f1:33:b7:9d:56:02:5f:
        87:a2:9a:41:7d:77:70:96:bf:1c:b0:00:dc:2b:4e:20:01:65:
        3b:f1:d7:15:a8:c5:dd:dc
-----BEGIN CERTIFICATE-----
MIIGPjCCBCagAwIBAgIBATANBgkqhkiG9w0BAQUFADBZMR4wHAYDVQQLExVDZXJ0
aWZpY2F0ZSBBdXRob3JpdHkxFTATBgNVBAMTDEludGVybWVkaWF0ZTEgMB4GCSqG
SIb3DQEJARYRcm9vdEBJbnRlcm1lZGlhdGUwHhcNMTEwODEwMjI0MjQ3WhcNMTQw
ODA5MjI0MjQ3WjBwMRUwEwYDVQQKEwxXZWJzYWdlcyBMTEMxHjAcBgNVBAsTFUNl
cnRpZmljYXRlIEF1dGhvcml0eTEVMBMGA1UEAxMMSW50ZXJtZWRpYXRlMSAwHgYJ
KoZIhvcNAQkBFhFyb290QEludGVybWVkaWF0ZTCCAiIwDQYJKoZIhvcNAQEBBQAD
ggIPADCCAgoCggIBAMZPrHEvJJygoOgNnDJyCtBVNacAzERxfyiAyjy3rUtq9BmA
ShdixiI6+X6oa9AwA8AEHlohAekzPtOND+3HVbH7dbFIf3L4xkDfIme0e+LZl8x6
8+OhZe0R/TepI+DDEktJvX1ztZlZqgQPuSO5sWxsnxdMvrkeYJYWXyWlsx/zu3bC
P6coQTDZNqxDJQTTjQ+XcYR4kVodKlDkoqDp707v8NubQVShksAoK/blKcA/LV58
9ER2JxcoZg/PEzYMd/9IXvkTrO6d01LYQm6QsN08KWnctUuReJQ4Q3XYAIJWhEq+
mlfFcdzK/1YFNhlzmPYW309ovNn5jsgkK6SjcpeBWHwATrxNxiiv6H2Xg+m3k6px
eyfgt6tS79dfQpfMEJWh3CyL32kjkAM0NEjYoVl8vOfQOCIXfpzYxcgQ9FI7iEg9
d2BvXhVX6ivHrkBwpWtaGkGeJy488Sg0P0kaLx1sWj1nKlXetr6dgIwhm6XMKhBT
zTymdP2bOp8h0ACGWopyVTUMWE14Qq1hQ3lmBiya2HQrQb8XtT/yVv+nwzbh9cDw
yHTRVMJkwd4I8PqJFvRRqSXyt9VJRKV0gkqb9OEw9dUtlTnb88lLsd2L7xPT7jf9
W7nlxOY7uqHcITPVuSUiNvsnYhydPbU+IMNulL2q2325NM8vsEssBMY3Amn9AgMB
AAGjgfkwgfYwHQYDVR0OBBYEFKPoz5Y/Jh1vPANo2AV/oFjq62qwMHEGA1UdIwRq
MGiAFOUEfZrap3yB1/XzFvcTXCY70ZsdoU2kSzBJMR4wHAYDVQQLExVDZXJ0aWZp
Y2F0ZSBBdXRob3JpdHkxDTALBgNVBAMTBFJvb3QxGDAWBgkqhkiG9w0BCQEWCXJv
b3RAUm9vdIIBATAMBgNVHRMEBTADAQH/MFQGCWCGSAGG+EIBBARHFkVodHRwczov
L3BraS53ZWJzYWdlcy5jb20vb3U9Y2VydGlmaWNhdGVfYXV0aG9yaXR5L2NuPWlu
dGVybWVkaWF0ZS5jcmwwDQYJKoZIhvcNAQEFBQADggIBAEDCEett+7OsN1gvIt89
1xndrLJ/u+Sxza1NICOH0oXqFywrISGmUy6yIq+IUw611DfSvdw3yMd6jvVCaxXz
mlcQbbA6SA3SjfZKKBSNAlcWM1erIj9P2K6d151nn2+rrMnv9TfbYq56MgMrF5Im
MWjWDuq1zuRtxidvr0992jzvsK+y2/ZfEgeyIAYVz2t0SFqNNpaygqKFsYmzPJXg
ijNnX3B+LC46eKPsiSINtAmLzw30fG6FpuyxaSqgBoBDOVKznkkMKdREa7bUkpow
nJG+bMlxo2xuu8kstOzzh2BjWSVEV6JWBrvajG6XcBesHREzHiFT8Z6M21v59Uxi
C4zCJZTonOxtq7lT98nBYNWw1V9HfbHBFTG7dKbNGbhwejDY2ju9V6Ao9HOaQwli
pFASK6yGzeAjaqUqBP6zNHlpdR30QqvuyRRsPNO20TzOGqGG0LuE/c/maaCoPPcE
zIM4L2aObpfgwrpfBpl5KZS0Le18INR9t5qFaUJsNd9q91GOHk58al70ctSPKT+a
qdeNbuUA6Y938FtHTIMh4/KNCdJzMEvUMmCPS4Grq7W1esBqenj7J/8GWYJ46QIz
rY+bfaRu+JukqhORHEQM7/gvmhtFxpvIudQ+9xJGaycS8TO3nVYCX4eimkF9d3CW
vxywANwrTiABZTvx1xWoxd3c
-----END CERTIFICATE-----
Certificate:
    Data:
        Version: 3 (0x2)
        Serial Number: 1 (0x1)
        Signature Algorithm: sha1WithRSAEncryption
        Issuer: O=Websages LLC, OU=Certificate Authority, CN=Intermediate/emailAddress=root@Intermediate
        Validity
            Not Before: Aug 10 22:42:48 2011 GMT
            Not After : Aug  9 22:42:48 2013 GMT
        Subject: O=Websages LLC, OU=websages.com, OU=Certificate Authority, CN=Intermediate/emailAddress=root@Intermediate
        Subject Public Key Info:
            Public Key Algorithm: rsaEncryption
            RSA Public Key: (4096 bit)
                Modulus (4096 bit):
                    00:c8:fd:e2:65:a7:63:2f:09:6a:20:ba:47:cf:26:
                    66:90:7c:4d:c8:12:d7:b6:e2:f9:c5:0a:e7:a0:00:
                    8b:84:f0:62:f3:62:28:b3:55:98:62:5f:62:d2:cc:
                    ea:95:05:53:ba:94:0e:78:e4:37:cb:3b:e6:aa:c2:
                    c1:cf:01:e1:da:4b:97:b6:2d:45:11:dd:ab:64:58:
                    34:fd:45:a4:8c:83:35:cc:c3:eb:25:09:16:7f:e7:
                    49:e4:8d:71:03:ac:05:dc:3b:8f:bc:73:bf:8c:91:
                    2f:cb:7d:59:06:c4:2f:fd:27:15:c0:65:e2:63:51:
                    5c:5c:e5:7e:6d:58:bb:91:63:fe:4e:c3:a8:ec:2a:
                    31:06:5c:a1:03:6a:4e:74:2e:bb:71:10:33:c8:e1:
                    d1:a4:a8:f2:4a:89:4a:ec:3e:3c:31:a0:21:d8:ec:
                    a7:22:97:e1:16:eb:b4:fa:73:aa:72:8e:be:61:e2:
                    a5:de:68:9f:a6:25:76:20:c8:66:64:47:dc:5b:1e:
                    45:57:27:d3:53:8b:27:17:97:4e:89:f2:73:f6:8e:
                    d4:4e:94:b9:e9:13:3f:4f:b7:e0:06:71:db:18:83:
                    13:6d:cd:62:fa:bc:22:87:24:45:48:e4:c6:5e:71:
                    ee:24:38:33:bf:d7:fa:b8:7f:1d:2f:f6:2b:12:0a:
                    3d:8a:33:31:65:84:81:98:72:aa:e6:2d:f0:86:10:
                    65:1f:b8:4b:9b:27:d5:de:6b:fb:c6:2a:c0:1d:b0:
                    ff:f7:89:3f:d5:77:1b:92:17:92:09:91:81:56:b1:
                    ec:82:11:21:89:ea:77:2a:96:8a:c7:6d:bd:3c:47:
                    15:83:a0:ae:9c:39:21:c8:95:43:1b:85:2b:e4:ab:
                    68:06:dd:94:38:fa:6e:58:a8:8b:89:e0:8a:e2:06:
                    48:96:2f:c3:1e:78:65:66:0c:d2:17:b0:13:df:4f:
                    97:6a:8c:7f:75:e0:b0:20:26:58:5f:ed:a7:5a:6c:
                    48:a2:83:17:30:84:dd:e6:5d:c1:f8:24:af:4c:18:
                    38:79:1e:71:b9:bc:7a:f2:28:a0:df:9e:80:04:a4:
                    bd:a7:6f:14:de:b5:5a:ad:82:6b:a0:b6:8d:7c:99:
                    95:2f:17:96:9d:93:70:29:c1:4f:63:59:7f:14:88:
                    a4:9d:87:cb:24:ea:ac:dd:2e:6e:17:15:42:e3:14:
                    d8:ed:c1:e9:12:33:78:1f:23:ce:ef:d6:82:4d:2b:
                    90:76:69:76:5e:5d:09:17:88:b6:05:2f:ed:ed:cd:
                    91:df:e8:2c:34:5c:ba:20:70:ad:7d:af:80:94:ee:
                    25:8a:cd:b4:16:df:19:34:39:1d:9b:f2:38:f1:3f:
                    85:e6:97
                Exponent: 65537 (0x10001)
        X509v3 extensions:
            X509v3 Subject Key Identifier: 
                23:D1:3E:D0:F1:9E:1A:7E:A9:05:FA:A1:98:40:78:5A:64:45:38:BD
            X509v3 Authority Key Identifier: 
                keyid:A3:E8:CF:96:3F:26:1D:6F:3C:03:68:D8:05:7F:A0:58:EA:EB:6A:B0
                DirName:/OU=Certificate Authority/CN=Intermediate/emailAddress=root@Intermediate
                serial:01

            X509v3 Basic Constraints: 
                CA:TRUE
            Netscape CA Revocation Url: 
                https://pki.websages.com/o=websages_llc/ou=certificate_authority/cn=intermediate.crl
    Signature Algorithm: sha1WithRSAEncryption
        5a:33:35:14:6e:03:42:8e:51:ab:46:53:71:c2:34:89:67:50:
        2d:2a:8b:79:71:fc:b8:e0:47:bb:7a:3f:e8:60:8b:43:91:b0:
        a6:11:a0:60:47:9e:d2:6c:02:7d:80:cd:cf:67:5b:e0:52:4f:
        08:74:b5:c8:ff:92:9a:d7:f1:71:62:8c:69:05:2c:b6:6d:f6:
        83:67:ba:24:f7:b9:7e:83:6a:9a:e8:17:43:ad:de:5e:59:b2:
        a9:ba:00:2a:86:fd:5a:cb:fc:dd:d0:c4:42:f1:8a:cc:97:fc:
        53:e2:b3:a0:86:52:de:68:b6:f2:53:f1:f7:03:14:95:8e:92:
        1b:cb:63:67:f8:d4:59:22:15:1c:26:08:80:34:af:c3:ad:58:
        d4:cc:85:d2:c5:2b:1e:e7:7e:c4:9a:b4:be:cb:db:6e:12:5f:
        42:22:b2:fd:f6:a6:9c:8c:68:b0:41:8a:68:ef:40:f3:a0:33:
        77:e1:04:dc:60:35:12:82:28:c8:3b:0a:c2:ec:e9:60:22:15:
        f3:73:18:d0:47:4f:9c:da:cf:86:05:1d:1c:21:9e:37:53:de:
        6a:00:7f:b1:b6:67:0d:d0:65:60:6e:c1:4f:0c:5f:e0:68:28:
        ff:49:80:c9:38:5c:86:e1:90:77:79:0a:b7:81:f9:e1:54:31:
        05:30:2d:f2:1d:c2:26:6d:cb:0b:77:9f:94:ee:95:7b:f0:d9:
        0d:86:1e:eb:23:81:38:95:99:b1:63:fc:24:3a:80:5e:08:4d:
        6e:17:e5:00:99:7c:5a:50:40:61:8d:2e:3c:5f:3d:a7:06:7c:
        99:98:ed:92:53:fc:75:c6:36:aa:f3:37:4c:f5:0d:b8:e8:b7:
        57:45:07:b3:9b:40:aa:07:86:05:3a:de:04:91:6c:aa:bc:a1:
        ca:3a:4c:2a:47:ff:b2:fb:c5:e5:84:dd:41:5b:71:5a:d6:57:
        7e:36:ac:c3:17:32:8e:6a:c7:6a:d8:c2:e9:1d:71:58:28:5c:
        13:a6:fe:61:a2:75:1b:9f:a7:c4:ae:77:66:8f:58:fb:d4:e9:
        f9:e5:d8:cb:c4:a2:ed:41:d8:bc:f1:05:63:a2:6a:df:9b:9c:
        93:55:6e:65:5d:c3:50:91:ab:bb:f9:a3:85:3d:98:c7:ff:40:
        a5:11:8e:f9:c1:3e:63:a3:c8:20:b6:1c:d8:e1:f7:fa:b1:5f:
        8d:76:fc:ca:c4:4d:29:3b:10:92:04:cc:20:06:c4:7c:29:fe:
        bb:7f:ff:57:19:07:1e:69:74:60:d8:18:4b:32:0b:23:64:55:
        e4:a9:58:c8:c8:09:57:89:2b:55:78:53:d4:7b:e8:05:b7:84:
        90:51:7a:ab:aa:6b:ac:a1
-----BEGIN CERTIFICATE-----
MIIGjzCCBHegAwIBAgIBATANBgkqhkiG9w0BAQUFADBwMRUwEwYDVQQKEwxXZWJz
YWdlcyBMTEMxHjAcBgNVBAsTFUNlcnRpZmljYXRlIEF1dGhvcml0eTEVMBMGA1UE
AxMMSW50ZXJtZWRpYXRlMSAwHgYJKoZIhvcNAQkBFhFyb290QEludGVybWVkaWF0
ZTAeFw0xMTA4MTAyMjQyNDhaFw0xMzA4MDkyMjQyNDhaMIGHMRUwEwYDVQQKEwxX
ZWJzYWdlcyBMTEMxFTATBgNVBAsTDHdlYnNhZ2VzLmNvbTEeMBwGA1UECxMVQ2Vy
dGlmaWNhdGUgQXV0aG9yaXR5MRUwEwYDVQQDEwxJbnRlcm1lZGlhdGUxIDAeBgkq
hkiG9w0BCQEWEXJvb3RASW50ZXJtZWRpYXRlMIICIjANBgkqhkiG9w0BAQEFAAOC
Ag8AMIICCgKCAgEAyP3iZadjLwlqILpHzyZmkHxNyBLXtuL5xQrnoACLhPBi82Io
s1WYYl9i0szqlQVTupQOeOQ3yzvmqsLBzwHh2kuXti1FEd2rZFg0/UWkjIM1zMPr
JQkWf+dJ5I1xA6wF3DuPvHO/jJEvy31ZBsQv/ScVwGXiY1FcXOV+bVi7kWP+TsOo
7CoxBlyhA2pOdC67cRAzyOHRpKjySolK7D48MaAh2OynIpfhFuu0+nOqco6+YeKl
3mifpiV2IMhmZEfcWx5FVyfTU4snF5dOifJz9o7UTpS56RM/T7fgBnHbGIMTbc1i
+rwihyRFSOTGXnHuJDgzv9f6uH8dL/YrEgo9ijMxZYSBmHKq5i3whhBlH7hLmyfV
3mv7xirAHbD/94k/1XcbkheSCZGBVrHsghEhiep3KpaKx229PEcVg6CunDkhyJVD
G4Ur5KtoBt2UOPpuWKiLieCK4gZIli/DHnhlZgzSF7AT30+Xaox/deCwICZYX+2n
WmxIooMXMITd5l3B+CSvTBg4eR5xubx68iig356ABKS9p28U3rVarYJroLaNfJmV
LxeWnZNwKcFPY1l/FIiknYfLJOqs3S5uFxVC4xTY7cHpEjN4HyPO79aCTSuQdml2
Xl0JF4i2BS/t7c2R3+gsNFy6IHCtfa+AlO4lis20Ft8ZNDkdm/I48T+F5pcCAwEA
AaOCARowggEWMB0GA1UdDgQWBBQj0T7Q8Z4afqkF+qGYQHhaZEU4vTCBgQYDVR0j
BHoweIAUo+jPlj8mHW88A2jYBX+gWOrrarChXaRbMFkxHjAcBgNVBAsTFUNlcnRp
ZmljYXRlIEF1dGhvcml0eTEVMBMGA1UEAxMMSW50ZXJtZWRpYXRlMSAwHgYJKoZI
hvcNAQkBFhFyb290QEludGVybWVkaWF0ZYIBATAMBgNVHRMEBTADAQH/MGMGCWCG
SAGG+EIBBARWFlRodHRwczovL3BraS53ZWJzYWdlcy5jb20vbz13ZWJzYWdlc19s
bGMvb3U9Y2VydGlmaWNhdGVfYXV0aG9yaXR5L2NuPWludGVybWVkaWF0ZS5jcmww
DQYJKoZIhvcNAQEFBQADggIBAFozNRRuA0KOUatGU3HCNIlnUC0qi3lx/LjgR7t6
P+hgi0ORsKYRoGBHntJsAn2Azc9nW+BSTwh0tcj/kprX8XFijGkFLLZt9oNnuiT3
uX6DaproF0Ot3l5Zsqm6ACqG/VrL/N3QxELxisyX/FPis6CGUt5otvJT8fcDFJWO
khvLY2f41FkiFRwmCIA0r8OtWNTMhdLFKx7nfsSatL7L224SX0Iisv32ppyMaLBB
imjvQPOgM3fhBNxgNRKCKMg7CsLs6WAiFfNzGNBHT5zaz4YFHRwhnjdT3moAf7G2
Zw3QZWBuwU8MX+BoKP9JgMk4XIbhkHd5CreB+eFUMQUwLfIdwiZtywt3n5TulXvw
2Q2GHusjgTiVmbFj/CQ6gF4ITW4X5QCZfFpQQGGNLjxfPacGfJmY7ZJT/HXGNqrz
N0z1Dbjot1dFB7ObQKoHhgU63gSRbKq8oco6TCpH/7L7xeWE3UFbcVrWV342rMMX
Mo5qx2rYwukdcVgoXBOm/mGidRufp8Sud2aPWPvU6fnl2MvEou1B2LzxBWOiat+b
nJNVbmVdw1CRq7v5o4U9mMf/QKURjvnBPmOjyCC2HNjh9/qxX412/MrETSk7EJIE
zCAGxHwp/rt//1cZBx5pdGDYGEsyCyNkVeSpWMjICVeJK1V4U9R76AW3hJBRequq
a6yh
-----END CERTIFICATE-----
